target datalayout = "e-m:e-p270:32:32-p271:32:32-p272:64:64-i64:64-i128:128-f80:128-n8:16:32:64-S128"
target triple = "x86_64-pc-linux-gnu"

%struct.FT_GlyphRec_ = type { ptr, ptr, i32, %struct.FT_Vector_ }
%struct.FT_Vector_ = type { i64, i64 }
%struct.FT_Outline_ = type { i16, i16, ptr, ptr, ptr, i32 }
%struct.FT_OutlineGlyphRec_ = type { %struct.FT_GlyphRec_, %struct.FT_Outline_ }

; Function Attrs: nounwind uwtable
define internal void @ft_outline_glyph_transform(ptr noundef %0, ptr noundef %1, ptr noundef %2) #0 {
  %4 = alloca ptr, align 8
  %5 = alloca ptr, align 8
  %6 = alloca ptr, align 8
  %7 = alloca ptr, align 8
  store ptr %0, ptr %4, align 8, !tbaa !3
  store ptr %1, ptr %5, align 8, !tbaa !67
  store ptr %2, ptr %6, align 8, !tbaa !69
  call void @llvm.lifetime.start.p0(i64 8, ptr %7) #6
  %8 = load ptr, ptr %4, align 8, !tbaa !3
  store ptr %8, ptr %7, align 8, !tbaa !58
  %9 = load ptr, ptr %5, align 8, !tbaa !67
  %10 = icmp ne ptr %9, null
  br i1 %10, label %11, label %15

11:                                               ; preds = %3
  %12 = load ptr, ptr %7, align 8, !tbaa !58
  %13 = getelementptr inbounds nuw %struct.FT_OutlineGlyphRec_, ptr %12, i32 0, i32 1
  %14 = load ptr, ptr %5, align 8, !tbaa !67
  call void @FT_Outline_Transform(ptr noundef %13, ptr noundef %14)
  br label %15

15:                                               ; preds = %11, %3
  %16 = load ptr, ptr %6, align 8, !tbaa !69
  %17 = icmp ne ptr %16, null
  br i1 %17, label %18, label %27

18:                                               ; preds = %15
  %19 = load ptr, ptr %7, align 8, !tbaa !58
  %20 = getelementptr inbounds nuw %struct.FT_OutlineGlyphRec_, ptr %19, i32 0, i32 1
  %21 = load ptr, ptr %6, align 8, !tbaa !69
  %22 = getelementptr inbounds nuw %struct.FT_Vector_, ptr %21, i32 0, i32 0
  %23 = load i64, ptr %22, align 8, !tbaa !70
  %24 = load ptr, ptr %6, align 8, !tbaa !69
  %25 = getelementptr inbounds nuw %struct.FT_Vector_, ptr %24, i32 0, i32 1
  %26 = load i64, ptr %25, align 8, !tbaa !71
  call void @FT_Outline_Translate(ptr noundef %20, i64 noundef %23, i64 noundef %26)
  br label %27

27:                                               ; preds = %18, %15
  call void @llvm.lifetime.end.p0(i64 8, ptr %7) #6
  ret void
}