; Function Attrs: nounwind uwtable
define internal void @ft_outline_glyph_transform(ptr noundef %0, ptr noundef %1, ptr noundef readonly %2) #0 {
  %.not = icmp eq ptr %1, null
  br i1 %.not, label %6, label %4

4:                                                ; preds = %3
  %5 = getelementptr inbounds nuw i8, ptr %0, i64 40
  tail call void @FT_Outline_Transform(ptr noundef nonnull %5, ptr noundef nonnull %1) #6
  br label %6

6:                                                ; preds = %4, %3
  %.not9 = icmp eq ptr %2, null
  br i1 %.not9, label %12, label %7

7:                                                ; preds = %6
  %8 = getelementptr inbounds nuw i8, ptr %0, i64 40
  %9 = load i64, ptr %2, align 8, !tbaa !55
  %10 = getelementptr inbounds nuw i8, ptr %2, i64 8
  %11 = load i64, ptr %10, align 8, !tbaa !56
  tail call void @FT_Outline_Translate(ptr noundef nonnull %8, i64 noundef %9, i64 noundef %11) #6
  br label %12

12:                                               ; preds = %7, %6
  ret void
}